target datalayout = "e-m:e-p270:32:32-p271:32:32-p272:64:64-i64:64-i128:128-f80:128-n8:16:32:64-S128"
target triple = "x86_64-pc-linux-gnu"

%struct.prov_cipher_ctx_st = type { [16 x i8], [16 x i8], [16 x i8], ptr, %union.anon, i32, i64, i64, i64, i64, i32, i8, i32, ptr, i32, i64, i32, i64, i32, ptr, ptr, ptr }
%union.anon = type { ptr }
%struct.prov_cipher_hw_st = type { ptr, ptr, ptr }

@.str.1 = private unnamed_addr constant [60 x i8] c"../openssl/providers/implementations/ciphers/ciphercommon.c\00", align 1
@__func__.ossl_cipher_generic_stream_update = private unnamed_addr constant [34 x i8] c"ossl_cipher_generic_stream_update\00", align 1

; Function Attrs: nounwind uwtable
define i32 @ossl_cipher_generic_stream_update(ptr noundef %0, ptr noundef %1, ptr noundef %2, i64 noundef %3, ptr noundef %4, i64 noundef %5) #0 {
  %7 = alloca i32, align 4
  %8 = alloca ptr, align 8
  %9 = alloca ptr, align 8
  %10 = alloca ptr, align 8
  %11 = alloca i64, align 8
  %12 = alloca ptr, align 8
  %13 = alloca i64, align 8
  %14 = alloca ptr, align 8
  %15 = alloca i32, align 4
  store ptr %0, ptr %8, align 8, !tbaa !3
  store ptr %1, ptr %9, align 8, !tbaa !25
  store ptr %2, ptr %10, align 8, !tbaa !37
  store i64 %3, ptr %11, align 8, !tbaa !11
  store ptr %4, ptr %12, align 8, !tbaa !25
  store i64 %5, ptr %13, align 8, !tbaa !11
  call void @llvm.lifetime.start.p0(i64 8, ptr %14) #7
  %16 = load ptr, ptr %8, align 8, !tbaa !3
  store ptr %16, ptr %14, align 8, !tbaa !13
  %17 = load ptr, ptr %14, align 8, !tbaa !13
  %18 = getelementptr inbounds nuw %struct.prov_cipher_ctx_st, ptr %17, i32 0, i32 11
  %19 = load i8, ptr %18, align 4
  %20 = lshr i8 %19, 3
  %21 = and i8 %20, 1
  %22 = zext i8 %21 to i32
  %23 = icmp ne i32 %22, 0
  br i1 %23, label %25, label %24

24:                                               ; preds = %6
  call void @ERR_new()
  call void @ERR_set_debug(ptr noundef @.str.1, i32 noundef 499, ptr noundef @__func__.ossl_cipher_generic_stream_update)
  call void (i32, i32, ptr, ...) @ERR_set_error(i32 noundef 57, i32 noundef 114, ptr noundef null)
  store i32 0, ptr %7, align 4
  store i32 1, ptr %15, align 4
  br label %156

25:                                               ; preds = %6
  %26 = load i64, ptr %13, align 8, !tbaa !11
  %27 = icmp eq i64 %26, 0
  br i1 %27, label %28, label %30

28:                                               ; preds = %25
  %29 = load ptr, ptr %10, align 8, !tbaa !37
  store i64 0, ptr %29, align 8, !tbaa !11
  store i32 1, ptr %7, align 4
  store i32 1, ptr %15, align 4
  br label %156

30:                                               ; preds = %25
  %31 = load i64, ptr %11, align 8, !tbaa !11
  %32 = load i64, ptr %13, align 8, !tbaa !11
  %33 = icmp ult i64 %31, %32
  br i1 %33, label %34, label %35

34:                                               ; preds = %30
  call void @ERR_new()
  call void @ERR_set_debug(ptr noundef @.str.1, i32 noundef 509, ptr noundef @__func__.ossl_cipher_generic_stream_update)
  call void (i32, i32, ptr, ...) @ERR_set_error(i32 noundef 57, i32 noundef 106, ptr noundef null)
  store i32 0, ptr %7, align 4
  store i32 1, ptr %15, align 4
  br label %156

35:                                               ; preds = %30
  %36 = load ptr, ptr %14, align 8, !tbaa !13
  %37 = getelementptr inbounds nuw %struct.prov_cipher_ctx_st, ptr %36, i32 0, i32 19
  %38 = load ptr, ptr %37, align 8, !tbaa !29
  %39 = getelementptr inbounds nuw %struct.prov_cipher_hw_st, ptr %38, i32 0, i32 1
  %40 = load ptr, ptr %39, align 8, !tbaa !44
  %41 = load ptr, ptr %14, align 8, !tbaa !13
  %42 = load ptr, ptr %9, align 8, !tbaa !25
  %43 = load ptr, ptr %12, align 8, !tbaa !25
  %44 = load i64, ptr %13, align 8, !tbaa !11
  %45 = call i32 %40(ptr noundef %41, ptr noundef %42, ptr noundef %43, i64 noundef %44)
  %46 = icmp ne i32 %45, 0
  br i1 %46, label %48, label %47

47:                                               ; preds = %35
  call void @ERR_new()
  call void @ERR_set_debug(ptr noundef @.str.1, i32 noundef 514, ptr noundef @__func__.ossl_cipher_generic_stream_update)
  call void (i32, i32, ptr, ...) @ERR_set_error(i32 noundef 57, i32 noundef 102, ptr noundef null)
  store i32 0, ptr %7, align 4
  store i32 1, ptr %15, align 4
  br label %156

48:                                               ; preds = %35
  %49 = load i64, ptr %13, align 8, !tbaa !11
  %50 = load ptr, ptr %10, align 8, !tbaa !37
  store i64 %49, ptr %50, align 8, !tbaa !11
  %51 = load ptr, ptr %14, align 8, !tbaa !13
  %52 = getelementptr inbounds nuw %struct.prov_cipher_ctx_st, ptr %51, i32 0, i32 11
  %53 = load i8, ptr %52, align 4
  %54 = lshr i8 %53, 1
  %55 = and i8 %54, 1
  %56 = zext i8 %55 to i32
  %57 = icmp ne i32 %56, 0
  br i1 %57, label %155, label %58

58:                                               ; preds = %48
  %59 = load ptr, ptr %14, align 8, !tbaa !13
  %60 = getelementptr inbounds nuw %struct.prov_cipher_ctx_st, ptr %59, i32 0, i32 12
  %61 = load i32, ptr %60, align 8, !tbaa !40
  %62 = icmp ugt i32 %61, 0
  br i1 %62, label %63, label %155

63:                                               ; preds = %58
  %64 = load ptr, ptr %14, align 8, !tbaa !13
  %65 = getelementptr inbounds nuw %struct.prov_cipher_ctx_st, ptr %64, i32 0, i32 16
  %66 = load i32, ptr %65, align 8, !tbaa !47
  %67 = icmp ne i32 %66, 0
  br i1 %67, label %68, label %101

68:                                               ; preds = %63
  %69 = load ptr, ptr %10, align 8, !tbaa !37
  %70 = load i64, ptr %69, align 8, !tbaa !11
  %71 = load ptr, ptr %9, align 8, !tbaa !25
  %72 = load i64, ptr %13, align 8, !tbaa !11
  %73 = sub i64 %72, 1
  %74 = getelementptr inbounds nuw i8, ptr %71, i64 %73
  %75 = load i8, ptr %74, align 1, !tbaa !41
  %76 = zext i8 %75 to i32
  %77 = add nsw i32 %76, 1
  %78 = sext i32 %77 to i64
  %79 = icmp uge i64 %70, %78
  %80 = zext i1 %79 to i32
  %81 = icmp ne i32 %80, 0
  %82 = xor i1 %81, true
  %83 = xor i1 %82, true
  %84 = zext i1 %83 to i32
  %85 = sext i32 %84 to i64
  %86 = call i64 @llvm.expect.i64(i64 %85, i64 1)
  %87 = icmp ne i64 %86, 0
  br i1 %87, label %89, label %88

88:                                               ; preds = %68
  store i32 0, ptr %7, align 4
  store i32 1, ptr %15, align 4
  br label %156

89:                                               ; preds = %68
  %90 = load ptr, ptr %9, align 8, !tbaa !25
  %91 = load i64, ptr %13, align 8, !tbaa !11
  %92 = sub i64 %91, 1
  %93 = getelementptr inbounds nuw i8, ptr %90, i64 %92
  %94 = load i8, ptr %93, align 1, !tbaa !41
  %95 = zext i8 %94 to i32
  %96 = add nsw i32 %95, 1
  %97 = sext i32 %96 to i64
  %98 = load ptr, ptr %10, align 8, !tbaa !37
  %99 = load i64, ptr %98, align 8, !tbaa !11
  %100 = sub i64 %99, %97
  store i64 %100, ptr %98, align 8, !tbaa !11
  br label %101

101:                                              ; preds = %89, %63
  %102 = load ptr, ptr %10, align 8, !tbaa !37
  %103 = load i64, ptr %102, align 8, !tbaa !11
  %104 = load ptr, ptr %14, align 8, !tbaa !13
  %105 = getelementptr inbounds nuw %struct.prov_cipher_ctx_st, ptr %104, i32 0, i32 17
  %106 = load i64, ptr %105, align 8, !tbaa !48
  %107 = icmp uge i64 %103, %106
  %108 = zext i1 %107 to i32
  %109 = icmp ne i32 %108, 0
  %110 = xor i1 %109, true
  %111 = xor i1 %110, true
  %112 = zext i1 %111 to i32
  %113 = sext i32 %112 to i64
  %114 = call i64 @llvm.expect.i64(i64 %113, i64 1)
  %115 = icmp ne i64 %114, 0
  br i1 %115, label %117, label %116

116:                                              ; preds = %101
  store i32 0, ptr %7, align 4
  store i32 1, ptr %15, align 4
  br label %156

117:                                              ; preds = %101
  %118 = load ptr, ptr %14, align 8, !tbaa !13
  %119 = getelementptr inbounds nuw %struct.prov_cipher_ctx_st, ptr %118, i32 0, i32 17
  %120 = load i64, ptr %119, align 8, !tbaa !48
  %121 = load ptr, ptr %10, align 8, !tbaa !37
  %122 = load i64, ptr %121, align 8, !tbaa !11
  %123 = sub i64 %122, %120
  store i64 %123, ptr %121, align 8, !tbaa !11
  %124 = load ptr, ptr %14, align 8, !tbaa !13
  %125 = getelementptr inbounds nuw %struct.prov_cipher_ctx_st, ptr %124, i32 0, i32 15
  %126 = load i64, ptr %125, align 8, !tbaa !46
  %127 = icmp ugt i64 %126, 0
  br i1 %127, label %128, label %154

128:                                              ; preds = %117
  %129 = load ptr, ptr %10, align 8, !tbaa !37
  %130 = load i64, ptr %129, align 8, !tbaa !11
  %131 = load ptr, ptr %14, align 8, !tbaa !13
  %132 = getelementptr inbounds nuw %struct.prov_cipher_ctx_st, ptr %131, i32 0, i32 15
  %133 = load i64, ptr %132, align 8, !tbaa !46
  %134 = icmp ult i64 %130, %133
  br i1 %134, label %135, label %136

135:                                              ; preds = %128
  store i32 0, ptr %7, align 4
  store i32 1, ptr %15, align 4
  br label %156

136:                                              ; preds = %128
  %137 = load ptr, ptr %9, align 8, !tbaa !25
  %138 = load ptr, ptr %10, align 8, !tbaa !37
  %139 = load i64, ptr %138, align 8, !tbaa !11
  %140 = getelementptr inbounds nuw i8, ptr %137, i64 %139
  %141 = load ptr, ptr %14, align 8, !tbaa !13
  %142 = getelementptr inbounds nuw %struct.prov_cipher_ctx_st, ptr %141, i32 0, i32 15
  %143 = load i64, ptr %142, align 8, !tbaa !46
  %144 = sub i64 0, %143
  %145 = getelementptr inbounds i8, ptr %140, i64 %144
  %146 = load ptr, ptr %14, align 8, !tbaa !13
  %147 = getelementptr inbounds nuw %struct.prov_cipher_ctx_st, ptr %146, i32 0, i32 13
  store ptr %145, ptr %147, align 8, !tbaa !24
  %148 = load ptr, ptr %14, align 8, !tbaa !13
  %149 = getelementptr inbounds nuw %struct.prov_cipher_ctx_st, ptr %148, i32 0, i32 15
  %150 = load i64, ptr %149, align 8, !tbaa !46
  %151 = load ptr, ptr %10, align 8, !tbaa !37
  %152 = load i64, ptr %151, align 8, !tbaa !11
  %153 = sub i64 %152, %150
  store i64 %153, ptr %151, align 8, !tbaa !11
  br label %154

154:                                              ; preds = %136, %117
  br label %155

155:                                              ; preds = %154, %58, %48
  store i32 1, ptr %7, align 4
  store i32 1, ptr %15, align 4
  br label %156

156:                                              ; preds = %155, %135, %116, %88, %47, %34, %28, %24
  call void @llvm.lifetime.end.p0(i64 8, ptr %14) #7
  %157 = load i32, ptr %7, align 4
  ret i32 %157
}