; Function Attrs: nounwind uwtable
define range(i32 0, 2) i32 @ossl_cipher_generic_stream_update(ptr noundef %0, ptr noundef %1, ptr noundef writeonly captures(none) %2, i64 noundef %3, ptr noundef %4, i64 noundef %5) local_unnamed_addr #1 {
  %7 = getelementptr inbounds nuw i8, ptr %0, i64 108
  %8 = load i8, ptr %7, align 4
  %9 = and i8 %8, 8
  %.not = icmp eq i8 %9, 0
  br i1 %.not, label %10, label %11

10:                                               ; preds = %6
  tail call void @ERR_new() #6
  tail call void @ERR_set_debug(ptr noundef nonnull @.str.1, i32 noundef 499, ptr noundef nonnull @__func__.ossl_cipher_generic_stream_update) #6
  tail call void (i32, i32, ptr, ...) @ERR_set_error(i32 noundef 57, i32 noundef 114, ptr noundef null) #6
  br label %56

11:                                               ; preds = %6
  %12 = icmp eq i64 %5, 0
  br i1 %12, label %13, label %14

13:                                               ; preds = %11
  store i64 0, ptr %2, align 8, !tbaa !15
  br label %56

14:                                               ; preds = %11
  %15 = icmp ult i64 %3, %5
  br i1 %15, label %16, label %17

16:                                               ; preds = %14
  tail call void @ERR_new() #6
  tail call void @ERR_set_debug(ptr noundef nonnull @.str.1, i32 noundef 509, ptr noundef nonnull @__func__.ossl_cipher_generic_stream_update) #6
  tail call void (i32, i32, ptr, ...) @ERR_set_error(i32 noundef 57, i32 noundef 106, ptr noundef null) #6
  br label %56

17:                                               ; preds = %14
  %18 = getelementptr inbounds nuw i8, ptr %0, i64 168
  %19 = load ptr, ptr %18, align 8, !tbaa !23
  %20 = getelementptr inbounds nuw i8, ptr %19, i64 8
  %21 = load ptr, ptr %20, align 8, !tbaa !35
  %22 = tail call i32 %21(ptr noundef nonnull %0, ptr noundef %1, ptr noundef %4, i64 noundef %5) #6
  %.not41 = icmp eq i32 %22, 0
  br i1 %.not41, label %23, label %24

23:                                               ; preds = %17
  tail call void @ERR_new() #6
  tail call void @ERR_set_debug(ptr noundef nonnull @.str.1, i32 noundef 514, ptr noundef nonnull @__func__.ossl_cipher_generic_stream_update) #6
  tail call void (i32, i32, ptr, ...) @ERR_set_error(i32 noundef 57, i32 noundef 102, ptr noundef null) #6
  br label %56

24:                                               ; preds = %17
  store i64 %5, ptr %2, align 8, !tbaa !15
  %25 = load i8, ptr %7, align 4
  %26 = and i8 %25, 2
  %.not42 = icmp eq i8 %26, 0
  br i1 %.not42, label %27, label %56

27:                                               ; preds = %24
  %28 = getelementptr inbounds nuw i8, ptr %0, i64 112
  %29 = load i32, ptr %28, align 8, !tbaa !31
  %.not43 = icmp eq i32 %29, 0
  br i1 %.not43, label %56, label %30

30:                                               ; preds = %27
  %31 = getelementptr inbounds nuw i8, ptr %0, i64 144
  %32 = load i32, ptr %31, align 8, !tbaa !39
  %.not44 = icmp eq i32 %32, 0
  br i1 %.not44, label %40, label %33

33:                                               ; preds = %30
  %34 = getelementptr i8, ptr %1, i64 %5
  %35 = getelementptr i8, ptr %34, i64 -1
  %36 = load i8, ptr %35, align 1, !tbaa !32
  %37 = zext i8 %36 to i64
  %.not45.not = icmp ugt i64 %5, %37
  br i1 %.not45.not, label %38, label %56, !prof !40

38:                                               ; preds = %33
  %.neg = xor i64 %37, -1
  %39 = add i64 %5, %.neg
  store i64 %39, ptr %2, align 8, !tbaa !15
  br label %40

40:                                               ; preds = %38, %30
  %41 = phi i64 [ %39, %38 ], [ %5, %30 ]
  %42 = getelementptr inbounds nuw i8, ptr %0, i64 152
  %43 = load i64, ptr %42, align 8, !tbaa !41
  %.not46 = icmp ult i64 %41, %43
  br i1 %.not46, label %56, label %44, !prof !38

44:                                               ; preds = %40
  %45 = sub nuw i64 %41, %43
  store i64 %45, ptr %2, align 8, !tbaa !15
  %46 = getelementptr inbounds nuw i8, ptr %0, i64 136
  %47 = load i64, ptr %46, align 8, !tbaa !37
  %.not47 = icmp eq i64 %47, 0
  br i1 %.not47, label %56, label %48

48:                                               ; preds = %44
  %49 = icmp ult i64 %45, %47
  br i1 %49, label %56, label %50

50:                                               ; preds = %48
  %51 = getelementptr inbounds nuw i8, ptr %1, i64 %45
  %52 = sub i64 0, %47
  %53 = getelementptr inbounds i8, ptr %51, i64 %52
  %54 = getelementptr inbounds nuw i8, ptr %0, i64 120
  store ptr %53, ptr %54, align 8, !tbaa !19
  %55 = sub nuw i64 %45, %47
  store i64 %55, ptr %2, align 8, !tbaa !15
  br label %56

56:                                               ; preds = %24, %27, %50, %44, %48, %40, %33, %23, %16, %13, %10
  %.0 = phi i32 [ 1, %13 ], [ 0, %16 ], [ 0, %23 ], [ 0, %10 ], [ 0, %33 ], [ 0, %40 ], [ 0, %48 ], [ 1, %44 ], [ 1, %50 ], [ 1, %27 ], [ 1, %24 ]
  ret i32 %.0
}